target datalayout = "e-m:e-p270:32:32-p271:32:32-p272:64:64-i64:64-i128:128-f80:128-n8:16:32:64-S128"
target triple = "x86_64-pc-linux-gnu"

%"class.sat::literal" = type { i32 }
%"class.sls::bv_plugin" = type <{ %"class.sls::plugin.base", [4 x i8], %class.bv_util, %"class.sls::bv_terms", %"class.sls::bv_eval", %"class.bv::sls_stats", i8, [7 x i8] }>
%"class.sls::plugin.base" = type <{ ptr, ptr, ptr, i32 }>
%class.bv_util = type { %class.bv_recognizers, ptr, ptr }
%class.bv_recognizers = type { i32 }
%"class.sls::bv_terms" = type { ptr, ptr, %class.bv_util, %class.ref_vector, %class.vector.0 }
%class.ref_vector = type { %class.ref_vector_core }
%class.ref_vector_core = type { %class.ref_manager_wrapper, %class.ptr_vector }
%class.ref_manager_wrapper = type { ptr }
%class.ptr_vector = type { %class.vector }
%class.vector = type { ptr }
%class.vector.0 = type { ptr }
%"class.sls::bv_eval" = type <{ ptr, ptr, ptr, %"class.sls::bv_lookahead", %class.bv_util, %"class.sls::bv_fixed", [8 x i8], %class.ptr_vector, %class.random_gen, %"struct.sls::bv_eval::config", %class.svector.8, i32, i32, %class.svector.10, %class.svector.12, %class.scoped_ptr_vector, %"class.sls::bvect", %"class.sls::bvect", %"class.sls::bvect", %"class.sls::bvect", %"class.sls::bvect", %"class.sls::bvect", %"class.sls::bvect", %"class.sls::bvect", %"class.sls::bvect", %"class.sls::bvect", %"class.sls::bvect", %"class.sls::bvect", %"class.sls::bvect", i8, [7 x i8] }>
%"class.sls::bv_lookahead" = type { %class.bv_util, ptr, ptr, ptr, %"struct.sls::bv_lookahead::config", %"struct.sls::bv_lookahead::stats", %"class.sls::bvect", %"class.sls::bvect", %class.ptr_vector, %class.svector.2, %class.vector.4, %class.obj_mark, double, double, %"class.sls::bvect", ptr, ptr, %class.ptr_vector, %class.vector.5, %class.obj_mark, i32, %class.tracked_uint_set, i32, i32 }
%"struct.sls::bv_lookahead::config" = type <{ i8, [7 x i8], double, i32, i32, i8, i8, i8, i8, i32, i32, i32, i32, i8, [3 x i8], i32, i32, i32, i8, [3 x i8], double, double, i8, [7 x i8], double, i8, i8, i8, [5 x i8] }>
%"struct.sls::bv_lookahead::stats" = type { i32, i32, i32, i32, i32, i32 }
%class.svector.2 = type { %class.vector.3 }
%class.vector.3 = type { ptr }
%class.vector.4 = type { ptr }
%class.vector.5 = type { ptr }
%class.obj_mark = type { [8 x i8], %class.bit_vector }
%class.bit_vector = type { i32, i32, ptr }
%class.tracked_uint_set = type { %class.svector.6, %class.svector }
%class.svector.6 = type { %class.vector.7 }
%class.vector.7 = type { ptr }
%class.svector = type { %class.vector.1 }
%class.vector.1 = type { ptr }
%"class.sls::bv_fixed" = type { ptr, ptr, ptr, ptr, ptr }
%class.random_gen = type { i32 }
%"struct.sls::bv_eval::config" = type { i32 }
%class.svector.8 = type { %class.vector.9 }
%class.vector.9 = type { ptr }
%class.svector.10 = type { %class.vector.11 }
%class.vector.11 = type { ptr }
%class.svector.12 = type { %class.vector.13 }
%class.vector.13 = type { ptr }
%class.scoped_ptr_vector = type { %class.ptr_vector.14 }
%class.ptr_vector.14 = type { %class.vector.15 }
%class.vector.15 = type { ptr }
%"class.sls::bvect" = type <{ %class.svector, i32, i32, i32, [4 x i8] }>
%"class.bv::sls_stats" = type { i32, i32, i32, i32, i32, i32, i32, i32, %class.stopwatch }
%class.stopwatch = type <{ %"class.std::chrono::time_point", %"class.std::chrono::duration", i8, [7 x i8] }>
%"class.std::chrono::time_point" = type { %"class.std::chrono::duration" }
%"class.std::chrono::duration" = type { i64 }
%"class.sls::plugin" = type <{ ptr, ptr, ptr, i32, [4 x i8] }>
%"class.sls::context" = type <{ ptr, ptr, %class.scoped_ptr_vector.16, %class.indexed_uint_set, %class.indexed_uint_set, %class.ref_vector, %class.svector, %class.params_ref, %class.vector.0, %class.svector.19, %class.svector.19, %class.indexed_uint_set, %class.random_gen, i8, i8, i8, i8, %class.ref_vector, %class.ref_vector, %class.ptr_vector, %"struct.sls::context::greater_depth", %"struct.sls::context::less_depth", %class.heap, %class.heap.23, %class.uint_set, %class.ref_vector, %"struct.sls::context::stats", [4 x i8], %class.ref_vector, i8, [7 x i8] }>
%class.scoped_ptr_vector.16 = type { %class.ptr_vector.17 }
%class.ptr_vector.17 = type { %class.vector.18 }
%class.vector.18 = type { ptr }
%class.params_ref = type { ptr }
%class.svector.19 = type { %class.vector.20 }
%class.vector.20 = type { ptr }
%class.indexed_uint_set = type { i32, %class.svector, %class.svector }
%"struct.sls::context::greater_depth" = type { ptr }
%"struct.sls::context::less_depth" = type { ptr }
%class.heap = type { %"struct.sls::context::greater_depth", %class.svector.21, %class.svector.21 }
%class.svector.21 = type { %class.vector.22 }
%class.vector.22 = type { ptr }
%class.heap.23 = type { %"struct.sls::context::less_depth", %class.svector.21, %class.svector.21 }
%class.uint_set = type { %class.svector }
%"struct.sls::context::stats" = type { i32, i32, i32 }

; Function Attrs: mustprogress nounwind uwtable
define linkonce_odr hidden noundef i32 @_ZNK6vectorIP4exprLb0EjE4sizeEv(ptr noundef nonnull align 8 dereferenceable(8) %0) #6 comdat align 2 {
  %2 = alloca i32, align 4
  %3 = alloca ptr, align 8
  store ptr %0, ptr %3, align 8, !tbaa !160
  %4 = load ptr, ptr %3, align 8
  %5 = getelementptr inbounds nuw %class.vector, ptr %4, i32 0, i32 0
  %6 = load ptr, ptr %5, align 8, !tbaa !162
  %7 = icmp eq ptr %6, null
  br i1 %7, label %8, label %9

8:                                                ; preds = %1
  store i32 0, ptr %2, align 4
  br label %14

9:                                                ; preds = %1
  %10 = getelementptr inbounds nuw %class.vector, ptr %4, i32 0, i32 0
  %11 = load ptr, ptr %10, align 8, !tbaa !162
  %12 = getelementptr inbounds i32, ptr %11, i64 -1
  %13 = load i32, ptr %12, align 4, !tbaa !113
  store i32 %13, ptr %2, align 4
  br label %14

14:                                               ; preds = %9, %8
  %15 = load i32, ptr %2, align 4
  ret i32 %15
}

; Function Attrs: mustprogress nounwind uwtable
define linkonce_odr hidden noundef nonnull align 8 dereferenceable(8) ptr @_ZNK6vectorIP4exprLb0EjE3getEjRKS1_(ptr noundef nonnull align 8 dereferenceable(8) %0, i32 noundef %1, ptr noundef nonnull align 8 dereferenceable(8) %2) #6 comdat align 2 {
  %4 = alloca ptr, align 8
  %5 = alloca ptr, align 8
  %6 = alloca i32, align 4
  %7 = alloca ptr, align 8
  store ptr %0, ptr %5, align 8, !tbaa !160
  store i32 %1, ptr %6, align 4, !tbaa !113
  store ptr %2, ptr %7, align 8, !tbaa !153
  %8 = load ptr, ptr %5, align 8
  %9 = load i32, ptr %6, align 4, !tbaa !113
  %10 = call noundef i32 @_ZNK6vectorIP4exprLb0EjE4sizeEv(ptr noundef nonnull align 8 dereferenceable(8) %8)
  %11 = icmp uge i32 %9, %10
  br i1 %11, label %12, label %14

12:                                               ; preds = %3
  %13 = load ptr, ptr %7, align 8, !tbaa !153
  store ptr %13, ptr %4, align 8
  br label %20

14:                                               ; preds = %3
  %15 = getelementptr inbounds nuw %class.vector, ptr %8, i32 0, i32 0
  %16 = load ptr, ptr %15, align 8, !tbaa !162
  %17 = load i32, ptr %6, align 4, !tbaa !113
  %18 = zext i32 %17 to i64
  %19 = getelementptr inbounds nuw ptr, ptr %16, i64 %18
  store ptr %19, ptr %4, align 8
  br label %20

20:                                               ; preds = %14, %12
  %21 = load ptr, ptr %4, align 8
  ret ptr %21
}

; Function Attrs: mustprogress uwtable
define linkonce_odr hidden noundef ptr @_ZNK15ref_vector_coreI4expr19ref_manager_wrapperIS0_11ast_managerEE3getEjPS0_(ptr noundef nonnull align 8 dereferenceable(16) %0, i32 noundef %1, ptr noundef %2) #4 comdat align 2 {
  %4 = alloca ptr, align 8
  %5 = alloca i32, align 4
  %6 = alloca ptr, align 8
  store ptr %0, ptr %4, align 8, !tbaa !154
  store i32 %1, ptr %5, align 4, !tbaa !113
  store ptr %2, ptr %6, align 8, !tbaa !97
  %7 = load ptr, ptr %4, align 8
  %8 = getelementptr inbounds nuw %class.ref_vector_core, ptr %7, i32 0, i32 1
  %9 = load i32, ptr %5, align 4, !tbaa !113
  %10 = call noundef nonnull align 8 dereferenceable(8) ptr @_ZNK6vectorIP4exprLb0EjE3getEjRKS1_(ptr noundef nonnull align 8 dereferenceable(8) %8, i32 noundef %9, ptr noundef nonnull align 8 dereferenceable(8) %6)
  %11 = load ptr, ptr %10, align 8, !tbaa !97
  ret ptr %11
}

; Function Attrs: mustprogress uwtable
define linkonce_odr hidden void @_ZN3sls7context4flipEj(ptr noundef nonnull align 8 dereferenceable(321) %0, i32 noundef %1) #4 comdat align 2 {
  %3 = alloca ptr, align 8
  %4 = alloca i32, align 4
  store ptr %0, ptr %3, align 8, !tbaa !8
  store i32 %1, ptr %4, align 4, !tbaa !113
  %5 = load ptr, ptr %3, align 8
  %6 = getelementptr inbounds nuw %"class.sls::context", ptr %5, i32 0, i32 1
  %7 = load ptr, ptr %6, align 8, !tbaa !116
  %8 = load i32, ptr %4, align 4, !tbaa !113
  %9 = load ptr, ptr %7, align 8, !tbaa !10
  %10 = getelementptr inbounds ptr, ptr %9, i64 5
  %11 = load ptr, ptr %10, align 8
  call void %11(ptr noundef nonnull align 8 dereferenceable(8) %7, i32 noundef %8)
  ret void
}

; Function Attrs: inlinehint mustprogress nounwind uwtable
define linkonce_odr hidden noundef ptr @_Z6to_appP3ast(ptr noundef %0) #5 comdat {
  %2 = alloca ptr, align 8
  store ptr %0, ptr %2, align 8, !tbaa !140
  %3 = load ptr, ptr %2, align 8, !tbaa !140
  ret ptr %3
}

; Function Attrs: mustprogress uwtable
define hidden noundef zeroext i1 @_ZN3sls9bv_plugin15is_bv_predicateEP4expr(ptr noundef nonnull align 8 dereferenceable(1049) %0, ptr noundef %1) #4 align 2 {
  %3 = alloca ptr, align 8
  %4 = alloca ptr, align 8
  store ptr %0, ptr %3, align 8, !tbaa !3
  store ptr %1, ptr %4, align 8, !tbaa !97
  %5 = load ptr, ptr %3, align 8
  %6 = getelementptr inbounds nuw %"class.sls::bv_plugin", ptr %5, i32 0, i32 3
  %7 = load ptr, ptr %4, align 8, !tbaa !97
  %8 = call noundef zeroext i1 @_ZNK3sls8bv_terms15is_bv_predicateEP4expr(ptr noundef nonnull align 8 dereferenceable(64) %6, ptr noundef %7)
  ret i1 %8
}

; Function Attrs: mustprogress uwtable
define linkonce_odr hidden noundef ptr @_ZN3sls7context4atomEj(ptr noundef nonnull align 8 dereferenceable(321) %0, i32 noundef %1) #4 comdat align 2 {
  %3 = alloca ptr, align 8
  %4 = alloca i32, align 4
  store ptr %0, ptr %3, align 8, !tbaa !8
  store i32 %1, ptr %4, align 4, !tbaa !113
  %5 = load ptr, ptr %3, align 8
  %6 = getelementptr inbounds nuw %"class.sls::context", ptr %5, i32 0, i32 5
  %7 = load i32, ptr %4, align 4, !tbaa !113
  %8 = call noundef ptr @_ZNK15ref_vector_coreI4expr19ref_manager_wrapperIS0_11ast_managerEE3getEjPS0_(ptr noundef nonnull align 8 dereferenceable(16) %6, i32 noundef %7, ptr noundef null)
  ret ptr %8
}

; Function Attrs: mustprogress nounwind uwtable
define linkonce_odr hidden noundef i32 @_ZNK3sat7literal3varEv(ptr noundef nonnull align 4 dereferenceable(4) %0) #6 comdat align 2 {
  %2 = alloca ptr, align 8
  store ptr %0, ptr %2, align 8, !tbaa !137
  %3 = load ptr, ptr %2, align 8
  %4 = getelementptr inbounds nuw %"class.sat::literal", ptr %3, i32 0, i32 0
  %5 = load i32, ptr %4, align 4, !tbaa !138
  %6 = lshr i32 %5, 1
  ret i32 %6
}

; Function Attrs: mustprogress uwtable
define linkonce_odr hidden noundef zeroext i1 @_ZN3sls7context7is_trueEN3sat7literalE(ptr noundef nonnull align 8 dereferenceable(321) %0, i32 %1) #4 comdat align 2 {
  %3 = alloca %"class.sat::literal", align 4
  %4 = alloca ptr, align 8
  %5 = alloca %"class.sat::literal", align 4
  %6 = getelementptr inbounds nuw %"class.sat::literal", ptr %3, i32 0, i32 0
  store i32 %1, ptr %6, align 4
  store ptr %0, ptr %4, align 8, !tbaa !8
  %7 = load ptr, ptr %4, align 8
  %8 = getelementptr inbounds nuw %"class.sls::context", ptr %7, i32 0, i32 1
  %9 = load ptr, ptr %8, align 8, !tbaa !116
  call void @llvm.memcpy.p0.p0.i64(ptr align 4 %5, ptr align 4 %3, i64 4, i1 false), !tbaa.struct !112
  %10 = getelementptr inbounds nuw %"class.sat::literal", ptr %5, i32 0, i32 0
  %11 = load i32, ptr %10, align 4
  %12 = load ptr, ptr %9, align 8, !tbaa !10
  %13 = getelementptr inbounds ptr, ptr %12, i64 10
  %14 = load ptr, ptr %13, align 8
  %15 = call noundef zeroext i1 %14(ptr noundef nonnull align 8 dereferenceable(8) %9, i32 %11)
  ret i1 %15
}

; Function Attrs: mustprogress uwtable
define hidden void @_ZN3sls9bv_plugin14repair_literalEN3sat7literalE(ptr noundef nonnull align 8 dereferenceable(1049) %0, i32 %1) unnamed_addr #4 align 2 {
  %3 = alloca %"class.sat::literal", align 4
  %4 = alloca ptr, align 8
  %5 = alloca %"class.sat::literal", align 4
  %6 = alloca ptr, align 8
  %7 = alloca i32, align 4
  %8 = alloca ptr, align 8
  %9 = getelementptr inbounds nuw %"class.sat::literal", ptr %3, i32 0, i32 0
  store i32 %1, ptr %9, align 4
  store ptr %0, ptr %4, align 8, !tbaa !3
  %10 = load ptr, ptr %4, align 8
  %11 = getelementptr inbounds nuw %"class.sls::plugin", ptr %10, i32 0, i32 1
  %12 = load ptr, ptr %11, align 8, !tbaa !111
  call void @llvm.memcpy.p0.p0.i64(ptr align 4 %5, ptr align 4 %3, i64 4, i1 false), !tbaa.struct !112
  %13 = getelementptr inbounds nuw %"class.sat::literal", ptr %5, i32 0, i32 0
  %14 = load i32, ptr %13, align 4
  %15 = call noundef zeroext i1 @_ZN3sls7context7is_trueEN3sat7literalE(ptr noundef nonnull align 8 dereferenceable(321) %12, i32 %14)
  br i1 %15, label %17, label %16

16:                                               ; preds = %2
  br label %38

17:                                               ; preds = %2
  call void @llvm.lifetime.start.p0(i64 8, ptr %6) #3
  %18 = getelementptr inbounds nuw %"class.sls::plugin", ptr %10, i32 0, i32 1
  %19 = load ptr, ptr %18, align 8, !tbaa !111
  %20 = call noundef i32 @_ZNK3sat7literal3varEv(ptr noundef nonnull align 4 dereferenceable(4) %3)
  %21 = call noundef ptr @_ZN3sls7context4atomEj(ptr noundef nonnull align 8 dereferenceable(321) %19, i32 noundef %20)
  store ptr %21, ptr %6, align 8, !tbaa !97
  %22 = load ptr, ptr %6, align 8, !tbaa !97
  %23 = call noundef zeroext i1 @_ZN3sls9bv_plugin15is_bv_predicateEP4expr(ptr noundef nonnull align 8 dereferenceable(1049) %10, ptr noundef %22)
  br i1 %23, label %25, label %24

24:                                               ; preds = %17
  store i32 1, ptr %7, align 4
  br label %36

25:                                               ; preds = %17
  call void @llvm.lifetime.start.p0(i64 8, ptr %8) #3
  %26 = load ptr, ptr %6, align 8, !tbaa !97
  %27 = call noundef ptr @_Z6to_appP3ast(ptr noundef %26)
  store ptr %27, ptr %8, align 8, !tbaa !114
  %28 = getelementptr inbounds nuw %"class.sls::bv_plugin", ptr %10, i32 0, i32 4
  %29 = load ptr, ptr %8, align 8, !tbaa !114
  %30 = call noundef zeroext i1 @_ZN3sls7bv_eval15eval_is_correctEP3app(ptr noundef nonnull align 8 dereferenceable(865) %28, ptr noundef %29)
  br i1 %30, label %35, label %31

31:                                               ; preds = %25
  %32 = getelementptr inbounds nuw %"class.sls::plugin", ptr %10, i32 0, i32 1
  %33 = load ptr, ptr %32, align 8, !tbaa !111
  %34 = call noundef i32 @_ZNK3sat7literal3varEv(ptr noundef nonnull align 4 dereferenceable(4) %3)
  call void @_ZN3sls7context4flipEj(ptr noundef nonnull align 8 dereferenceable(321) %33, i32 noundef %34)
  br label %35

35:                                               ; preds = %31, %25
  call void @llvm.lifetime.end.p0(i64 8, ptr %8) #3
  store i32 0, ptr %7, align 4
  br label %36

36:                                               ; preds = %35, %24
  call void @llvm.lifetime.end.p0(i64 8, ptr %6) #3
  %37 = load i32, ptr %7, align 4
  switch i32 %37, label %39 [
    i32 0, label %38
    i32 1, label %38
  ]

38:                                               ; preds = %16, %36, %36
  ret void

39:                                               ; preds = %36
  unreachable
}