; Function Attrs: mustprogress uwtable
define hidden void @_ZN3sls9bv_plugin14repair_literalEN3sat7literalE(ptr noundef nonnull align 8 dereferenceable(1049) %0, i32 %1) unnamed_addr #3 align 2 {
  %3 = getelementptr inbounds nuw i8, ptr %0, i64 8
  %4 = load ptr, ptr %3, align 8, !tbaa !109
  %5 = getelementptr inbounds nuw i8, ptr %4, i64 8
  %6 = load ptr, ptr %5, align 8, !tbaa !110
  %7 = load ptr, ptr %6, align 8, !tbaa !3
  %8 = getelementptr inbounds nuw i8, ptr %7, i64 80
  %9 = load ptr, ptr %8, align 8
  %10 = tail call noundef zeroext i1 %9(ptr noundef nonnull align 8 dereferenceable(8) %6, i32 %1)
  br i1 %10, label %11, label %34

11:                                               ; preds = %2
  %12 = load ptr, ptr %3, align 8, !tbaa !109
  %13 = lshr i32 %1, 1
  %14 = getelementptr inbounds nuw i8, ptr %12, i64 80
  %15 = load ptr, ptr %14, align 8, !tbaa !91
  %16 = icmp eq ptr %15, null
  br i1 %16, label %_ZN3sls7context4atomEj.exit, label %_ZNK6vectorIP4exprLb0EjE3getEjRKS1_.exit.i.i

_ZNK6vectorIP4exprLb0EjE3getEjRKS1_.exit.i.i:     ; preds = %11
  %17 = getelementptr inbounds i8, ptr %15, i64 -4
  %18 = load i32, ptr %17, align 4, !tbaa !83
  %.not.i.i.i = icmp ult i32 %13, %18
  br i1 %.not.i.i.i, label %_ZNK6vectorIP4exprLb0EjE3getEjRKS1_.exit.then.i.i, label %_ZN3sls7context4atomEj.exit

_ZNK6vectorIP4exprLb0EjE3getEjRKS1_.exit.then.i.i: ; preds = %_ZNK6vectorIP4exprLb0EjE3getEjRKS1_.exit.i.i
  %19 = zext nneg i32 %13 to i64
  %20 = getelementptr inbounds nuw ptr, ptr %15, i64 %19
  %.then.val.i.i = load ptr, ptr %20, align 8, !tbaa !94
  br label %_ZN3sls7context4atomEj.exit

_ZN3sls7context4atomEj.exit:                      ; preds = %11, %_ZNK6vectorIP4exprLb0EjE3getEjRKS1_.exit.i.i, %_ZNK6vectorIP4exprLb0EjE3getEjRKS1_.exit.then.i.i
  %21 = phi ptr [ %.then.val.i.i, %_ZNK6vectorIP4exprLb0EjE3getEjRKS1_.exit.then.i.i ], [ null, %_ZNK6vectorIP4exprLb0EjE3getEjRKS1_.exit.i.i ], [ null, %11 ]
  %22 = getelementptr inbounds nuw i8, ptr %0, i64 56
  %23 = tail call noundef zeroext i1 @_ZNK3sls8bv_terms15is_bv_predicateEP4expr(ptr noundef nonnull align 8 dereferenceable(64) %22, ptr noundef %21)
  br i1 %23, label %24, label %34

24:                                               ; preds = %_ZN3sls7context4atomEj.exit
  %25 = getelementptr inbounds nuw i8, ptr %0, i64 120
  %26 = tail call noundef zeroext i1 @_ZN3sls7bv_eval15eval_is_correctEP3app(ptr noundef nonnull align 8 dereferenceable(865) %25, ptr noundef %21)
  br i1 %26, label %34, label %27

27:                                               ; preds = %24
  %28 = load ptr, ptr %3, align 8, !tbaa !109
  %29 = getelementptr inbounds nuw i8, ptr %28, i64 8
  %30 = load ptr, ptr %29, align 8, !tbaa !110
  %31 = load ptr, ptr %30, align 8, !tbaa !3
  %32 = getelementptr inbounds nuw i8, ptr %31, i64 40
  %33 = load ptr, ptr %32, align 8
  tail call void %33(ptr noundef nonnull align 8 dereferenceable(8) %30, i32 noundef %13)
  br label %34

34:                                               ; preds = %_ZN3sls7context4atomEj.exit, %27, %24, %2
  ret void
}